target datalayout = "e-m:e-p270:32:32-p271:32:32-p272:64:64-i64:64-i128:128-f80:128-n8:16:32:64-S128"
target triple = "x86_64-pc-linux-gnu"

@ifd_tags = internal constant [3 x i16] [i16 -30871, i16 -30683, i16 -24571], align 2

; Function Attrs: nounwind uwtable
define i32 @ff_tis_ifd(i32 noundef %0) #0 {
  %2 = alloca i32, align 4
  %3 = alloca i32, align 4
  %4 = alloca i32, align 4
  %5 = alloca i32, align 4
  store i32 %0, ptr %3, align 4, !tbaa !4
  call void @llvm.lifetime.start.p0(i64 4, ptr %4) #8
  store i32 0, ptr %4, align 4, !tbaa !4
  br label %6

6:                                                ; preds = %22, %1
  %7 = load i32, ptr %4, align 4, !tbaa !4
  %8 = sext i32 %7 to i64
  %9 = icmp ult i64 %8, 3
  br i1 %9, label %10, label %25

10:                                               ; preds = %6
  %11 = load i32, ptr %4, align 4, !tbaa !4
  %12 = sext i32 %11 to i64
  %13 = getelementptr inbounds [3 x i16], ptr @ifd_tags, i64 0, i64 %12
  %14 = load i16, ptr %13, align 2, !tbaa !8
  %15 = zext i16 %14 to i32
  %16 = load i32, ptr %3, align 4, !tbaa !4
  %17 = icmp eq i32 %15, %16
  br i1 %17, label %18, label %21

18:                                               ; preds = %10
  %19 = load i32, ptr %4, align 4, !tbaa !4
  %20 = add nsw i32 %19, 1
  store i32 %20, ptr %2, align 4
  store i32 1, ptr %5, align 4
  br label %26

21:                                               ; preds = %10
  br label %22

22:                                               ; preds = %21
  %23 = load i32, ptr %4, align 4, !tbaa !4
  %24 = add nsw i32 %23, 1
  store i32 %24, ptr %4, align 4, !tbaa !4
  br label %6, !llvm.loop !10

25:                                               ; preds = %6
  store i32 0, ptr %2, align 4
  store i32 1, ptr %5, align 4
  br label %26

26:                                               ; preds = %25, %18
  call void @llvm.lifetime.end.p0(i64 4, ptr %4) #8
  %27 = load i32, ptr %2, align 4
  ret i32 %27
}