; Function Attrs: nofree norecurse nosync nounwind memory(none) uwtable
define range(i32 0, 4) i32 @ff_tis_ifd(i32 noundef %0) local_unnamed_addr #0 {
  br label %2

2:                                                ; preds = %1, %10
  %indvars.iv = phi i64 [ 0, %1 ], [ %indvars.iv.next, %10 ]
  %3 = getelementptr inbounds nuw [3 x i16], ptr @ifd_tags, i64 0, i64 %indvars.iv
  %4 = load i16, ptr %3, align 2, !tbaa !4
  %5 = zext i16 %4 to i32
  %6 = icmp eq i32 %0, %5
  br i1 %6, label %7, label %10

7:                                                ; preds = %2
  %8 = trunc nuw nsw i64 %indvars.iv to i32
  %9 = add nuw nsw i32 %8, 1
  br label %.loopexit

10:                                               ; preds = %2
  %indvars.iv.next = add nuw nsw i64 %indvars.iv, 1
  %exitcond.not = icmp eq i64 %indvars.iv.next, 3
  br i1 %exitcond.not, label %.loopexit, label %2, !llvm.loop !8

.loopexit:                                        ; preds = %10, %7
  %.06 = phi i32 [ %9, %7 ], [ 0, %10 ]
  ret i32 %.06
}